target datalayout = "e-m:e-p270:32:32-p271:32:32-p272:64:64-i64:64-i128:128-f80:128-n8:16:32:64-S128"
target triple = "x86_64-pc-linux-gnu"

%struct.minmax = type { double, double, double, i32 }

@output = dso_local global ptr null, align 8
@.str.21 = private unnamed_addr constant [15 x i8] c"Iteration %d:\0A\00", align 1
@.str.22 = private unnamed_addr constant [21 x i8] c"Minimum Time: %.2fs\0A\00", align 1
@.str.23 = private unnamed_addr constant [21 x i8] c"Maximum Time: %.2fs\0A\00", align 1

; Function Attrs: nounwind uwtable
define internal void @print_indent(i32 noundef %0) #0 {
  %2 = alloca i32, align 4
  store i32 %0, ptr %2, align 4
  %3 = load i32, ptr %2, align 4
  %4 = mul nsw i32 %3, 4
  store i32 %4, ptr %2, align 4
  br label %5

5:                                                ; preds = %11, %1
  %6 = load i32, ptr %2, align 4
  %7 = icmp sgt i32 %6, 0
  br i1 %7, label %8, label %14

8:                                                ; preds = %5
  %9 = load ptr, ptr @output, align 8
  %10 = call i32 @fputc(i32 noundef 32, ptr noundef %9)
  br label %11

11:                                               ; preds = %8
  %12 = load i32, ptr %2, align 4
  %13 = add nsw i32 %12, -1
  store i32 %13, ptr %2, align 4
  br label %5

14:                                               ; preds = %5
  ret void
}

; Function Attrs: nounwind uwtable
define internal void @output_all_info(ptr noundef %0, i32 noundef %1, i32 noundef %2) #0 {
  %4 = alloca ptr, align 8
  %5 = alloca i32, align 4
  %6 = alloca i32, align 4
  %7 = alloca i32, align 4
  store ptr %0, ptr %4, align 8
  store i32 %1, ptr %5, align 4
  store i32 %2, ptr %6, align 4
  store i32 0, ptr %7, align 4
  br label %8

8:                                                ; preds = %32, %3
  %9 = load i32, ptr %7, align 4
  %10 = load i32, ptr %5, align 4
  %11 = icmp slt i32 %9, %10
  br i1 %11, label %12, label %35

12:                                               ; preds = %8
  %13 = load i32, ptr %6, align 4
  call void @print_indent(i32 noundef %13)
  %14 = load i32, ptr %7, align 4
  %15 = add nsw i32 %14, 1
  call void (ptr, ...) @output_report(ptr noundef @.str.21, i32 noundef %15)
  %16 = load i32, ptr %6, align 4
  %17 = add nsw i32 %16, 1
  call void @print_indent(i32 noundef %17)
  %18 = load ptr, ptr %4, align 8
  %19 = load i32, ptr %7, align 4
  %20 = sext i32 %19 to i64
  %21 = getelementptr inbounds %struct.minmax, ptr %18, i64 %20
  %22 = getelementptr inbounds %struct.minmax, ptr %21, i32 0, i32 0
  %23 = load double, ptr %22, align 8
  call void (ptr, ...) @output_report(ptr noundef @.str.22, double noundef %23)
  %24 = load i32, ptr %6, align 4
  %25 = add nsw i32 %24, 1
  call void @print_indent(i32 noundef %25)
  %26 = load ptr, ptr %4, align 8
  %27 = load i32, ptr %7, align 4
  %28 = sext i32 %27 to i64
  %29 = getelementptr inbounds %struct.minmax, ptr %26, i64 %28
  %30 = getelementptr inbounds %struct.minmax, ptr %29, i32 0, i32 1
  %31 = load double, ptr %30, align 8
  call void (ptr, ...) @output_report(ptr noundef @.str.23, double noundef %31)
  br label %32

32:                                               ; preds = %12
  %33 = load i32, ptr %7, align 4
  %34 = add nsw i32 %33, 1
  store i32 %34, ptr %7, align 4
  br label %8

35:                                               ; preds = %8
  ret void
}