; Function Attrs: nofree nounwind uwtable
define internal fastcc void @output_all_info(ptr nocapture noundef readonly %0, i32 noundef %1) unnamed_addr #4 {
  %3 = icmp sgt i32 %1, 0
  br i1 %3, label %.lr.ph.i.preheader.preheader, label %._crit_edge

.lr.ph.i.preheader.preheader:                     ; preds = %2
  %wide.trip.count = zext nneg i32 %1 to i64
  br label %.lr.ph.i.preheader

.lr.ph.i.preheader:                               ; preds = %.lr.ph.i.preheader.preheader, %print_indent.exit15
  %indvars.iv = phi i64 [ 0, %.lr.ph.i.preheader.preheader ], [ %indvars.iv.next, %print_indent.exit15 ]
  br label %.lr.ph.i

.lr.ph.i:                                         ; preds = %.lr.ph.i.preheader, %.lr.ph.i
  %.03.i = phi i32 [ %6, %.lr.ph.i ], [ 16, %.lr.ph.i.preheader ]
  %4 = load ptr, ptr @output, align 8
  %5 = tail call i32 @fputc(i32 noundef 32, ptr noundef %4)
  %6 = add nsw i32 %.03.i, -1
  %7 = icmp ugt i32 %.03.i, 1
  br i1 %7, label %.lr.ph.i, label %print_indent.exit

print_indent.exit:                                ; preds = %.lr.ph.i
  %indvars.iv.next = add nuw nsw i64 %indvars.iv, 1
  %8 = trunc nuw nsw i64 %indvars.iv.next to i32
  tail call void (ptr, ...) @output_report(ptr noundef nonnull @.str.21, i32 noundef %8)
  br label %.lr.ph.i10

.lr.ph.i10:                                       ; preds = %.lr.ph.i10, %print_indent.exit
  %.03.i11 = phi i32 [ %11, %.lr.ph.i10 ], [ 20, %print_indent.exit ]
  %9 = load ptr, ptr @output, align 8
  %10 = tail call i32 @fputc(i32 noundef 32, ptr noundef %9)
  %11 = add nsw i32 %.03.i11, -1
  %12 = icmp ugt i32 %.03.i11, 1
  br i1 %12, label %.lr.ph.i10, label %print_indent.exit12

print_indent.exit12:                              ; preds = %.lr.ph.i10
  %13 = getelementptr inbounds %struct.minmax, ptr %0, i64 %indvars.iv
  %14 = load double, ptr %13, align 8
  tail call void (ptr, ...) @output_report(ptr noundef nonnull @.str.22, double noundef %14)
  br label %.lr.ph.i13

.lr.ph.i13:                                       ; preds = %.lr.ph.i13, %print_indent.exit12
  %.03.i14 = phi i32 [ %17, %.lr.ph.i13 ], [ 20, %print_indent.exit12 ]
  %15 = load ptr, ptr @output, align 8
  %16 = tail call i32 @fputc(i32 noundef 32, ptr noundef %15)
  %17 = add nsw i32 %.03.i14, -1
  %18 = icmp ugt i32 %.03.i14, 1
  br i1 %18, label %.lr.ph.i13, label %print_indent.exit15

print_indent.exit15:                              ; preds = %.lr.ph.i13
  %19 = getelementptr inbounds i8, ptr %13, i64 8
  %20 = load double, ptr %19, align 8
  tail call void (ptr, ...) @output_report(ptr noundef nonnull @.str.23, double noundef %20)
  %exitcond.not = icmp eq i64 %indvars.iv.next, %wide.trip.count
  br i1 %exitcond.not, label %._crit_edge, label %.lr.ph.i.preheader

._crit_edge:                                      ; preds = %print_indent.exit15, %2
  ret void
}